target datalayout = "e-m:e-p270:32:32-p271:32:32-p272:64:64-i64:64-i128:128-f80:128-n8:16:32:64-S128"
target triple = "x86_64-pc-linux-gnu"

; Function Attrs: nounwind uwtable
define internal double @trc_bt709_inv(double noundef %0) #0 {
  %2 = alloca double, align 8
  %3 = alloca double, align 8
  %4 = alloca double, align 8
  store double %0, ptr %2, align 8, !tbaa !27
  call void @llvm.lifetime.start.p0(i64 8, ptr %3) #7
  store double 0x3FF196B844FBE3DC, ptr %3, align 8, !tbaa !27
  call void @llvm.lifetime.start.p0(i64 8, ptr %4) #7
  store double 0x3FB4CC54FB6D1A6E, ptr %4, align 8, !tbaa !27
  %5 = load double, ptr %2, align 8, !tbaa !27
  %6 = fcmp nsz ogt double 0.000000e+00, %5
  br i1 %6, label %7, label %8

7:                                                ; preds = %1
  br label %21

8:                                                ; preds = %1
  %9 = load double, ptr %2, align 8, !tbaa !27
  %10 = fcmp nsz ogt double 0x3FB4CC54FB6D1A6E, %9
  br i1 %10, label %11, label %14

11:                                               ; preds = %8
  %12 = load double, ptr %2, align 8, !tbaa !27
  %13 = fdiv nsz double %12, 4.500000e+00
  br label %19

14:                                               ; preds = %8
  %15 = load double, ptr %2, align 8, !tbaa !27
  %16 = fadd nsz double %15, 0x3FB96B844FBE3DC0
  %17 = fdiv nsz double %16, 0x3FF196B844FBE3DC
  %18 = call nsz double @llvm.pow.f64(double %17, double 0x4001C71C71C71C72)
  br label %19

19:                                               ; preds = %14, %11
  %20 = phi nsz double [ %13, %11 ], [ %18, %14 ]
  br label %21

21:                                               ; preds = %19, %7
  %22 = phi nsz double [ 0.000000e+00, %7 ], [ %20, %19 ]
  call void @llvm.lifetime.end.p0(i64 8, ptr %4) #7
  call void @llvm.lifetime.end.p0(i64 8, ptr %3) #7
  ret double %22
}